; ModuleID = '24/340.c'
source_filename = "24/340.c"
target datalayout = "e-m:e-p270:32:32-p271:32:32-p272:64:64-i64:64-f80:128-n8:16:32:64-S128"
target triple = "x86_64-pc-linux-gnu"

@.str = private unnamed_addr constant [6 x i8] c"%s\0A%s\00", align 1

; Function Attrs: noinline nounwind uwtable
define dso_local i32 @main() #0 {
  %1 = alloca i32, align 4
  %2 = alloca [10000 x i8], align 16
  %3 = alloca [100 x [100 x i8]], align 16
  %4 = alloca i32, align 4
  %5 = alloca i32, align 4
  %6 = alloca i32, align 4
  %7 = alloca i32, align 4
  %8 = alloca i32, align 4
  %9 = alloca i32, align 4
  %10 = alloca [100 x i8], align 16
  %11 = alloca [100 x i8], align 16
  store i32 0, i32* %1, align 4
  %12 = getelementptr inbounds [10000 x i8], [10000 x i8]* %2, i64 0, i64 0
  %13 = call i32 (i8*, ...) bitcast (i32 (...)* @gets to i32 (i8*, ...)*)(i8* %12)
  store i32 0, i32* %8, align 4
  store i32 0, i32* %9, align 4
  %14 = bitcast [100 x i8]* %11 to i8*
  call void @llvm.memset.p0i8.i64(i8* align 16 %14, i8 0, i64 100, i1 false)
  %15 = bitcast i8* %14 to [100 x i8]*
  %16 = getelementptr inbounds [100 x i8], [100 x i8]* %15, i32 0, i32 0
  store i8 97, i8* %16, align 16
  %17 = getelementptr inbounds [100 x i8], [100 x i8]* %15, i32 0, i32 1
  store i8 97, i8* %17, align 1
  %18 = getelementptr inbounds [100 x i8], [100 x i8]* %15, i32 0, i32 2
  store i8 97, i8* %18, align 2
  %19 = getelementptr inbounds [100 x i8], [100 x i8]* %15, i32 0, i32 3
  store i8 97, i8* %19, align 1
  %20 = getelementptr inbounds [100 x i8], [100 x i8]* %15, i32 0, i32 4
  store i8 97, i8* %20, align 4
  store i32 0, i32* %6, align 4
  br label %21

21:                                               ; preds = %58, %0
  %22 = load i32, i32* %6, align 4
  %23 = sext i32 %22 to i64
  %24 = getelementptr inbounds [10000 x i8], [10000 x i8]* %2, i64 0, i64 0
  %25 = call i64 @strlen(i8* %24) #5
  %26 = icmp ult i64 %23, %25
  br i1 %26, label %27, label %61

27:                                               ; preds = %21
  %28 = load i32, i32* %6, align 4
  %29 = sext i32 %28 to i64
  %30 = getelementptr inbounds [10000 x i8], [10000 x i8]* %2, i64 0, i64 %29
  %31 = load i8, i8* %30, align 1
  %32 = sext i8 %31 to i32
  %33 = icmp ne i32 %32, 32
  br i1 %33, label %34, label %54

34:                                               ; preds = %27
  %35 = load i32, i32* %6, align 4
  %36 = sext i32 %35 to i64
  %37 = getelementptr inbounds [10000 x i8], [10000 x i8]* %2, i64 0, i64 %36
  %38 = load i8, i8* %37, align 1
  %39 = sext i8 %38 to i32
  %40 = icmp ne i32 %39, 0
  br i1 %40, label %41, label %54

41:                                               ; preds = %34
  %42 = load i32, i32* %6, align 4
  %43 = sext i32 %42 to i64
  %44 = getelementptr inbounds [10000 x i8], [10000 x i8]* %2, i64 0, i64 %43
  %45 = load i8, i8* %44, align 1
  %46 = load i32, i32* %9, align 4
  %47 = sext i32 %46 to i64
  %48 = getelementptr inbounds [100 x [100 x i8]], [100 x [100 x i8]]* %3, i64 0, i64 %47
  %49 = load i32, i32* %8, align 4
  %50 = sext i32 %49 to i64
  %51 = getelementptr inbounds [100 x i8], [100 x i8]* %48, i64 0, i64 %50
  store i8 %45, i8* %51, align 1
  %52 = load i32, i32* %8, align 4
  %53 = add nsw i32 %52, 1
  store i32 %53, i32* %8, align 4
  br label %57

54:                                               ; preds = %34, %27
  %55 = load i32, i32* %9, align 4
  %56 = add nsw i32 %55, 1
  store i32 %56, i32* %9, align 4
  store i32 0, i32* %8, align 4
  br label %57

57:                                               ; preds = %54, %41
  br label %58

58:                                               ; preds = %57
  %59 = load i32, i32* %6, align 4
  %60 = add nsw i32 %59, 1
  store i32 %60, i32* %6, align 4
  br label %21

61:                                               ; preds = %21
  store i32 0, i32* %4, align 4
  store i32 10, i32* %5, align 4
  store i32 0, i32* %6, align 4
  br label %62

62:                                               ; preds = %111, %61
  %63 = load i32, i32* %6, align 4
  %64 = load i32, i32* %9, align 4
  %65 = icmp sle i32 %63, %64
  br i1 %65, label %66, label %114

66:                                               ; preds = %62
  %67 = load i32, i32* %6, align 4
  %68 = sext i32 %67 to i64
  %69 = getelementptr inbounds [100 x [100 x i8]], [100 x [100 x i8]]* %3, i64 0, i64 %68
  %70 = getelementptr inbounds [100 x i8], [100 x i8]* %69, i64 0, i64 0
  %71 = call i64 @strlen(i8* %70) #5
  %72 = load i32, i32* %4, align 4
  %73 = sext i32 %72 to i64
  %74 = icmp ugt i64 %71, %73
  br i1 %74, label %75, label %88

75:                                               ; preds = %66
  %76 = load i32, i32* %6, align 4
  %77 = sext i32 %76 to i64
  %78 = getelementptr inbounds [100 x [100 x i8]], [100 x [100 x i8]]* %3, i64 0, i64 %77
  %79 = getelementptr inbounds [100 x i8], [100 x i8]* %78, i64 0, i64 0
  %80 = call i64 @strlen(i8* %79) #5
  %81 = trunc i64 %80 to i32
  store i32 %81, i32* %4, align 4
  %82 = getelementptr inbounds [100 x i8], [100 x i8]* %10, i64 0, i64 0
  %83 = load i32, i32* %6, align 4
  %84 = sext i32 %83 to i64
  %85 = getelementptr inbounds [100 x [100 x i8]], [100 x [100 x i8]]* %3, i64 0, i64 %84
  %86 = getelementptr inbounds [100 x i8], [100 x i8]* %85, i64 0, i64 0
  %87 = call i8* @strcpy(i8* %82, i8* %86) #6
  br label %88

88:                                               ; preds = %75, %66
  %89 = load i32, i32* %6, align 4
  %90 = sext i32 %89 to i64
  %91 = getelementptr inbounds [100 x [100 x i8]], [100 x [100 x i8]]* %3, i64 0, i64 %90
  %92 = getelementptr inbounds [100 x i8], [100 x i8]* %91, i64 0, i64 0
  %93 = call i64 @strlen(i8* %92) #5
  %94 = load i32, i32* %5, align 4
  %95 = sext i32 %94 to i64
  %96 = icmp ult i64 %93, %95
  br i1 %96, label %97, label %110

97:                                               ; preds = %88
  %98 = load i32, i32* %6, align 4
  %99 = sext i32 %98 to i64
  %100 = getelementptr inbounds [100 x [100 x i8]], [100 x [100 x i8]]* %3, i64 0, i64 %99
  %101 = getelementptr inbounds [100 x i8], [100 x i8]* %100, i64 0, i64 0
  %102 = call i64 @strlen(i8* %101) #5
  %103 = trunc i64 %102 to i32
  store i32 %103, i32* %5, align 4
  %104 = getelementptr inbounds [100 x i8], [100 x i8]* %11, i64 0, i64 0
  %105 = load i32, i32* %6, align 4
  %106 = sext i32 %105 to i64
  %107 = getelementptr inbounds [100 x [100 x i8]], [100 x [100 x i8]]* %3, i64 0, i64 %106
  %108 = getelementptr inbounds [100 x i8], [100 x i8]* %107, i64 0, i64 0
  %109 = call i8* @strcpy(i8* %104, i8* %108) #6
  br label %110

110:                                              ; preds = %97, %88
  br label %111

111:                                              ; preds = %110
  %112 = load i32, i32* %6, align 4
  %113 = add nsw i32 %112, 1
  store i32 %113, i32* %6, align 4
  br label %62

114:                                              ; preds = %62
  %115 = getelementptr inbounds [100 x i8], [100 x i8]* %10, i64 0, i64 0
  %116 = getelementptr inbounds [100 x i8], [100 x i8]* %11, i64 0, i64 0
  %117 = call i32 (i8*, ...) @printf(i8* getelementptr inbounds ([6 x i8], [6 x i8]* @.str, i64 0, i64 0), i8* %115, i8* %116)
  ret i32 0
}

declare dso_local i32 @gets(...) #1

; Function Attrs: argmemonly nounwind willreturn
declare void @llvm.memset.p0i8.i64(i8* nocapture writeonly, i8, i64, i1 immarg) #2

; Function Attrs: nounwind readonly
declare dso_local i64 @strlen(i8*) #3

; Function Attrs: nounwind
declare dso_local i8* @strcpy(i8*, i8*) #4

declare dso_local i32 @printf(i8*, ...) #1


!llvm.module.flags = !{!0}
!llvm.ident = !{!1}

!0 = !{i32 1, !"wchar_size", i32 4}
!1 = !{!"clang version 10.0.0-4ubuntu1 "}
